; Function Attrs: mustprogress uwtable
define hidden void @_ZN12solver_na2as19restore_assumptionsEj(ptr nocapture noundef nonnull readonly align 8 dereferenceable(120) %this, i32 noundef %old_sz) local_unnamed_addr #9 align 2 {
entry:
  %m_assumptions = getelementptr inbounds i8, ptr %this, i64 96
  %m_nodes.i = getelementptr inbounds i8, ptr %this, i64 104
  %0 = load ptr, ptr %m_nodes.i, align 8
  %cmp.i.i.i = icmp eq ptr %0, null
  br i1 %cmp.i.i.i, label %_ZN15ref_vector_coreI4expr19ref_manager_wrapperIS0_11ast_managerEE6shrinkEj.exit, label %_ZN6vectorIP4exprLb0EjE3endEv.exit.i

_ZN6vectorIP4exprLb0EjE3endEv.exit.i:             ; preds = %entry
  %arrayidx.i.i.i = getelementptr inbounds i8, ptr %0, i64 -4
  %1 = load i32, ptr %arrayidx.i.i.i, align 4
  %2 = zext i32 %1 to i64
  %add.ptr.i.i = getelementptr inbounds ptr, ptr %0, i64 %2
  %cmp3.i.i = icmp ugt i32 %1, %old_sz
  br i1 %cmp3.i.i, label %for.body.i.i.preheader, label %if.then.i.i

for.body.i.i.preheader:                           ; preds = %_ZN6vectorIP4exprLb0EjE3endEv.exit.i
  %idx.ext.i = zext i32 %old_sz to i64
  %add.ptr.i = getelementptr inbounds ptr, ptr %0, i64 %idx.ext.i
  br label %for.body.i.i

for.body.i.i:                                     ; preds = %for.body.i.i.preheader, %_ZN15ref_vector_coreI4expr19ref_manager_wrapperIS0_11ast_managerEE7dec_refEPS0_.exit.i.i
  %it.04.i.i = phi ptr [ %incdec.ptr.i.i, %_ZN15ref_vector_coreI4expr19ref_manager_wrapperIS0_11ast_managerEE7dec_refEPS0_.exit.i.i ], [ %add.ptr.i, %for.body.i.i.preheader ]
  %3 = load ptr, ptr %it.04.i.i, align 8
  %4 = load ptr, ptr %m_assumptions, align 8
  %tobool.not.i.i.i.i.i = icmp eq ptr %3, null
  br i1 %tobool.not.i.i.i.i.i, label %_ZN15ref_vector_coreI4expr19ref_manager_wrapperIS0_11ast_managerEE7dec_refEPS0_.exit.i.i, label %if.then.i.i.i.i.i

if.then.i.i.i.i.i:                                ; preds = %for.body.i.i
  %m_ref_count.i.i.i.i.i.i = getelementptr inbounds i8, ptr %3, i64 8
  %5 = load i32, ptr %m_ref_count.i.i.i.i.i.i, align 4
  %dec.i.i.i.i.i.i = add i32 %5, -1
  store i32 %dec.i.i.i.i.i.i, ptr %m_ref_count.i.i.i.i.i.i, align 4
  %cmp.i.i.i.i.i = icmp eq i32 %dec.i.i.i.i.i.i, 0
  br i1 %cmp.i.i.i.i.i, label %if.then2.i.i.i.i.i, label %_ZN15ref_vector_coreI4expr19ref_manager_wrapperIS0_11ast_managerEE7dec_refEPS0_.exit.i.i

if.then2.i.i.i.i.i:                               ; preds = %if.then.i.i.i.i.i
  tail call void @_ZN11ast_manager11delete_nodeEP3ast(ptr noundef nonnull align 8 dereferenceable(976) %4, ptr noundef nonnull %3)
  br label %_ZN15ref_vector_coreI4expr19ref_manager_wrapperIS0_11ast_managerEE7dec_refEPS0_.exit.i.i

_ZN15ref_vector_coreI4expr19ref_manager_wrapperIS0_11ast_managerEE7dec_refEPS0_.exit.i.i: ; preds = %if.then2.i.i.i.i.i, %if.then.i.i.i.i.i, %for.body.i.i
  %incdec.ptr.i.i = getelementptr inbounds i8, ptr %it.04.i.i, i64 8
  %cmp.i.i = icmp ult ptr %incdec.ptr.i.i, %add.ptr.i.i
  br i1 %cmp.i.i, label %for.body.i.i, label %_ZN15ref_vector_coreI4expr19ref_manager_wrapperIS0_11ast_managerEE13dec_range_refEPKPS0_S7_.exit.i, !llvm.loop !4

_ZN15ref_vector_coreI4expr19ref_manager_wrapperIS0_11ast_managerEE13dec_range_refEPKPS0_S7_.exit.i: ; preds = %_ZN15ref_vector_coreI4expr19ref_manager_wrapperIS0_11ast_managerEE7dec_refEPS0_.exit.i.i
  %.pre.i = load ptr, ptr %m_nodes.i, align 8
  %tobool.not.i.i = icmp eq ptr %.pre.i, null
  br i1 %tobool.not.i.i, label %_ZN15ref_vector_coreI4expr19ref_manager_wrapperIS0_11ast_managerEE6shrinkEj.exit, label %if.then.i.i

if.then.i.i:                                      ; preds = %_ZN15ref_vector_coreI4expr19ref_manager_wrapperIS0_11ast_managerEE13dec_range_refEPKPS0_S7_.exit.i, %_ZN6vectorIP4exprLb0EjE3endEv.exit.i
  %6 = phi ptr [ %.pre.i, %_ZN15ref_vector_coreI4expr19ref_manager_wrapperIS0_11ast_managerEE13dec_range_refEPKPS0_S7_.exit.i ], [ %0, %_ZN6vectorIP4exprLb0EjE3endEv.exit.i ]
  %arrayidx.i.i = getelementptr inbounds i8, ptr %6, i64 -4
  store i32 %old_sz, ptr %arrayidx.i.i, align 4
  br label %_ZN15ref_vector_coreI4expr19ref_manager_wrapperIS0_11ast_managerEE6shrinkEj.exit

_ZN15ref_vector_coreI4expr19ref_manager_wrapperIS0_11ast_managerEE6shrinkEj.exit: ; preds = %entry, %_ZN15ref_vector_coreI4expr19ref_manager_wrapperIS0_11ast_managerEE13dec_range_refEPKPS0_S7_.exit.i, %if.then.i.i
  ret void
}